target datalayout = "e-m:e-p270:32:32-p271:32:32-p272:64:64-i64:64-i128:128-f80:128-n8:16:32:64-S128"
target triple = "x86_64-unknown-linux-gnu"

%struct.MemoryRegion = type { %struct.Object, i8, i8, i8, i8, i8, i8, i8, i8, i8, i8, ptr, ptr, ptr, ptr, ptr, ptr, i32, i128, i64, ptr, i64, i8, i8, i8, i8, i8, ptr, i64, i32, %union.anon, %union.anon.0, %union.anon.1, ptr, i32, ptr, ptr, i8 }
%struct.Object = type { ptr, ptr, ptr, i32, ptr }
%union.anon = type { %struct.QTailQLink }
%struct.QTailQLink = type { ptr, ptr }
%union.anon.0 = type { %struct.QTailQLink }
%union.anon.1 = type { %struct.QTailQLink }
%struct.VFIOPCIDevice = type { %struct.PCIDevice, %struct.VFIODevice, %struct.VFIOINTx, i32, ptr, i64, i32, i64, ptr, i32, ptr, ptr, i32, i32, [6 x %struct.VFIOBAR], ptr, ptr, %struct.PCIHostDeviceAddress, %struct.QemuUUID, %struct.EventNotifier, %struct.EventNotifier, ptr, i32, i32, i32, i32, i32, i32, i32, i32, i32, i32, i32, i8, i8, i8, i8, i8, i8, i8, i8, i8, i8, i8, i8, i8, i8, i32, i8, i8, ptr, %struct.Notifier }
%struct.PCIDevice = type { %struct.DeviceState, i8, i8, ptr, ptr, ptr, ptr, ptr, i32, %struct.PCIReqIDCache, [64 x i8], [7 x %struct.PCIIORegion], %struct.AddressSpace, %struct.MemoryRegion, %struct.MemoryRegion, ptr, ptr, [3 x ptr], i8, i8, i32, i8, i32, ptr, ptr, ptr, ptr, ptr, ptr, %struct.MemoryRegion, %struct.MemoryRegion, %struct.MemoryRegion, ptr, i8, i32, i8, %struct.PCIExpressDevice, ptr, ptr, i32, i8, %struct.MemoryRegion, i32, ptr, ptr, ptr, ptr, ptr, i32 }
%struct.DeviceState = type { %struct.Object, ptr, ptr, i8, i8, i64, ptr, i32, i8, ptr, %struct.NamedGPIOListHead, %struct.NamedClockListHead, %struct.BusStateHead, i32, i32, i32, %struct.ResettableState, ptr, %struct.MemReentrancyGuard }
%struct.NamedGPIOListHead = type { ptr }
%struct.NamedClockListHead = type { ptr }
%struct.BusStateHead = type { ptr }
%struct.ResettableState = type { i32, i8, i8 }
%struct.MemReentrancyGuard = type { i8 }
%struct.PCIReqIDCache = type { ptr, i32 }
%struct.PCIIORegion = type { i64, i64, i8, ptr, ptr }
%struct.AddressSpace = type { %struct.rcu_head, ptr, ptr, ptr, i32, i32, ptr, %union.anon.4, %union.anon.5 }
%struct.rcu_head = type { ptr, ptr }
%union.anon.4 = type { %struct.QTailQLink }
%union.anon.5 = type { %struct.QTailQLink }
%struct.PCIExpressDevice = type { i8, i8, i8, i16, %struct.PCIEAERLog, i16, i16, i16, %struct.PCIESriovPF, %struct.PCIESriovVF }
%struct.PCIEAERLog = type { i16, i16, ptr }
%struct.PCIESriovPF = type { i16, [7 x i8], ptr, ptr }
%struct.PCIESriovVF = type { ptr, i16 }
%struct.VFIODevice = type { %struct.anon.6, %struct.anon.7, %struct.anon.8, ptr, ptr, ptr, ptr, ptr, i32, i32, i8, i8, i8, i8, i32, ptr, i32, i32, i32, ptr, ptr, i32, i8, i8 }
%struct.anon.6 = type { ptr, ptr }
%struct.anon.7 = type { ptr, ptr }
%struct.anon.8 = type { ptr, ptr }
%struct.VFIOINTx = type { i8, i8, i8, %struct.EventNotifier, %struct.EventNotifier, %struct.PCIINTxRoute, i32, ptr }
%struct.PCIINTxRoute = type { i32, i32 }
%struct.VFIOBAR = type { %struct.VFIORegion, ptr, i64, i8, i8, i8, %struct.anon.9 }
%struct.VFIORegion = type { ptr, i64, ptr, i64, i32, i32, ptr, i8 }
%struct.anon.9 = type { ptr }
%struct.PCIHostDeviceAddress = type { i32, i32, i32, i32 }
%struct.QemuUUID = type { %union.anon.10 }
%union.anon.10 = type { %struct.anon.11 }
%struct.anon.11 = type { i32, i16, i16, i8, i8, [6 x i8] }
%struct.EventNotifier = type { i32, i32, i8 }
%struct.Notifier = type { ptr, %struct.anon.12 }
%struct.anon.12 = type { ptr, ptr }
%struct.VFIOMSIVector = type { %struct.EventNotifier, %struct.EventNotifier, ptr, i32, i8 }
%struct.VFIOMSIXInfo = type { i8, i8, i16, i32, i32, ptr, i8 }
%struct.vfio_irq_set = type { i32, i32, i32, i32, i32, [0 x i8] }

; Function Attrs: nounwind sspstrong uwtable
define internal void @g_autoptr_cleanup_generic_gfree(ptr noundef %p) #0 {
entry:
  %p.addr = alloca ptr, align 8
  %pp = alloca ptr, align 8
  store ptr %p, ptr %p.addr, align 8
  %0 = load ptr, ptr %p.addr, align 8
  store ptr %0, ptr %pp, align 8
  %1 = load ptr, ptr %pp, align 8
  %2 = load ptr, ptr %1, align 8
  call void @g_free(ptr noundef %2)
  ret void
}

; Function Attrs: nounwind sspstrong uwtable
define internal i32 @vfio_enable_msix_no_vec(ptr noundef %vdev) #0 {
entry:
  %vdev.addr = alloca ptr, align 8
  %irq_set = alloca ptr, align 8
  %ret = alloca i32, align 4
  %argsz = alloca i32, align 4
  %fd = alloca ptr, align 8
  store ptr %vdev, ptr %vdev.addr, align 8
  store ptr null, ptr %irq_set, align 8
  store i32 0, ptr %ret, align 4
  store i32 24, ptr %argsz, align 4
  %0 = load i32, ptr %argsz, align 4
  %conv = sext i32 %0 to i64
  %call = call noalias ptr @g_malloc0(i64 noundef %conv) #18
  store ptr %call, ptr %irq_set, align 8
  %1 = load i32, ptr %argsz, align 4
  %2 = load ptr, ptr %irq_set, align 8
  %argsz1 = getelementptr inbounds %struct.vfio_irq_set, ptr %2, i32 0, i32 0
  store i32 %1, ptr %argsz1, align 4
  %3 = load ptr, ptr %irq_set, align 8
  %flags = getelementptr inbounds %struct.vfio_irq_set, ptr %3, i32 0, i32 1
  store i32 36, ptr %flags, align 4
  %4 = load ptr, ptr %irq_set, align 8
  %index = getelementptr inbounds %struct.vfio_irq_set, ptr %4, i32 0, i32 2
  store i32 2, ptr %index, align 4
  %5 = load ptr, ptr %irq_set, align 8
  %start = getelementptr inbounds %struct.vfio_irq_set, ptr %5, i32 0, i32 3
  store i32 0, ptr %start, align 4
  %6 = load ptr, ptr %irq_set, align 8
  %count = getelementptr inbounds %struct.vfio_irq_set, ptr %6, i32 0, i32 4
  store i32 1, ptr %count, align 4
  %7 = load ptr, ptr %irq_set, align 8
  %data = getelementptr inbounds %struct.vfio_irq_set, ptr %7, i32 0, i32 5
  store ptr %data, ptr %fd, align 8
  %8 = load ptr, ptr %fd, align 8
  store i32 -1, ptr %8, align 4
  %9 = load ptr, ptr %vdev.addr, align 8
  %vbasedev = getelementptr inbounds %struct.VFIOPCIDevice, ptr %9, i32 0, i32 1
  %fd2 = getelementptr inbounds %struct.VFIODevice, ptr %vbasedev, i32 0, i32 8
  %10 = load i32, ptr %fd2, align 8
  %11 = load ptr, ptr %irq_set, align 8
  %call3 = call i32 (i32, i64, ...) @ioctl(i32 noundef %10, i64 noundef 15214, ptr noundef %11) #16
  store i32 %call3, ptr %ret, align 4
  %12 = load i32, ptr %ret, align 4
  call void @g_autoptr_cleanup_generic_gfree(ptr noundef %irq_set)
  ret i32 %12
}

; Function Attrs: nounwind sspstrong uwtable
define internal i32 @vfio_enable_vectors(ptr noundef %vdev, i1 noundef zeroext %msix) #0 {
entry:
  %retval = alloca i32, align 4
  %vdev.addr = alloca ptr, align 8
  %msix.addr = alloca i8, align 1
  %irq_set = alloca ptr, align 8
  %ret = alloca i32, align 4
  %i = alloca i32, align 4
  %argsz = alloca i32, align 4
  %fds = alloca ptr, align 8
  %fd = alloca i32, align 4
  store ptr %vdev, ptr %vdev.addr, align 8
  %frombool = zext i1 %msix to i8
  store i8 %frombool, ptr %msix.addr, align 1
  store i32 0, ptr %ret, align 4
  %0 = load i8, ptr %msix.addr, align 1
  %tobool = trunc i8 %0 to i1
  br i1 %tobool, label %land.lhs.true, label %if.end5

land.lhs.true:                                    ; preds = %entry
  %1 = load ptr, ptr %vdev.addr, align 8
  %msix1 = getelementptr inbounds %struct.VFIOPCIDevice, ptr %1, i32 0, i32 11
  %2 = load ptr, ptr %msix1, align 8
  %noresize = getelementptr inbounds %struct.VFIOMSIXInfo, ptr %2, i32 0, i32 6
  %3 = load i8, ptr %noresize, align 8
  %tobool2 = trunc i8 %3 to i1
  br i1 %tobool2, label %if.end5, label %if.then

if.then:                                          ; preds = %land.lhs.true
  %4 = load ptr, ptr %vdev.addr, align 8
  %call = call i32 @vfio_enable_msix_no_vec(ptr noundef %4)
  store i32 %call, ptr %ret, align 4
  %5 = load i32, ptr %ret, align 4
  %tobool3 = icmp ne i32 %5, 0
  br i1 %tobool3, label %if.then4, label %if.end

if.then4:                                         ; preds = %if.then
  %6 = load i32, ptr %ret, align 4
  store i32 %6, ptr %retval, align 4
  br label %return

if.end:                                           ; preds = %if.then
  br label %if.end5

if.end5:                                          ; preds = %if.end, %land.lhs.true, %entry
  %7 = load ptr, ptr %vdev.addr, align 8
  %nr_vectors = getelementptr inbounds %struct.VFIOPCIDevice, ptr %7, i32 0, i32 12
  %8 = load i32, ptr %nr_vectors, align 16
  %conv = sext i32 %8 to i64
  %mul = mul i64 %conv, 4
  %add = add i64 20, %mul
  %conv6 = trunc i64 %add to i32
  store i32 %conv6, ptr %argsz, align 4
  %9 = load i32, ptr %argsz, align 4
  %conv7 = sext i32 %9 to i64
  %call8 = call noalias ptr @g_malloc0(i64 noundef %conv7) #18
  store ptr %call8, ptr %irq_set, align 8
  %10 = load i32, ptr %argsz, align 4
  %11 = load ptr, ptr %irq_set, align 8
  %argsz9 = getelementptr inbounds %struct.vfio_irq_set, ptr %11, i32 0, i32 0
  store i32 %10, ptr %argsz9, align 4
  %12 = load ptr, ptr %irq_set, align 8
  %flags = getelementptr inbounds %struct.vfio_irq_set, ptr %12, i32 0, i32 1
  store i32 36, ptr %flags, align 4
  %13 = load i8, ptr %msix.addr, align 1
  %tobool10 = trunc i8 %13 to i1
  %cond = select i1 %tobool10, i32 2, i32 1
  %14 = load ptr, ptr %irq_set, align 8
  %index = getelementptr inbounds %struct.vfio_irq_set, ptr %14, i32 0, i32 2
  store i32 %cond, ptr %index, align 4
  %15 = load ptr, ptr %irq_set, align 8
  %start = getelementptr inbounds %struct.vfio_irq_set, ptr %15, i32 0, i32 3
  store i32 0, ptr %start, align 4
  %16 = load ptr, ptr %vdev.addr, align 8
  %nr_vectors12 = getelementptr inbounds %struct.VFIOPCIDevice, ptr %16, i32 0, i32 12
  %17 = load i32, ptr %nr_vectors12, align 16
  %18 = load ptr, ptr %irq_set, align 8
  %count = getelementptr inbounds %struct.vfio_irq_set, ptr %18, i32 0, i32 4
  store i32 %17, ptr %count, align 4
  %19 = load ptr, ptr %irq_set, align 8
  %data = getelementptr inbounds %struct.vfio_irq_set, ptr %19, i32 0, i32 5
  store ptr %data, ptr %fds, align 8
  store i32 0, ptr %i, align 4
  br label %for.cond

for.cond:                                         ; preds = %for.inc, %if.end5
  %20 = load i32, ptr %i, align 4
  %21 = load ptr, ptr %vdev.addr, align 8
  %nr_vectors13 = getelementptr inbounds %struct.VFIOPCIDevice, ptr %21, i32 0, i32 12
  %22 = load i32, ptr %nr_vectors13, align 16
  %cmp = icmp slt i32 %20, %22
  br i1 %cmp, label %for.body, label %for.end

for.body:                                         ; preds = %for.cond
  store i32 -1, ptr %fd, align 4
  %23 = load ptr, ptr %vdev.addr, align 8
  %msi_vectors = getelementptr inbounds %struct.VFIOPCIDevice, ptr %23, i32 0, i32 10
  %24 = load ptr, ptr %msi_vectors, align 16
  %25 = load i32, ptr %i, align 4
  %idxprom = sext i32 %25 to i64
  %arrayidx = getelementptr %struct.VFIOMSIVector, ptr %24, i64 %idxprom
  %use = getelementptr inbounds %struct.VFIOMSIVector, ptr %arrayidx, i32 0, i32 4
  %26 = load i8, ptr %use, align 4
  %tobool15 = trunc i8 %26 to i1
  br i1 %tobool15, label %if.then16, label %if.end37

if.then16:                                        ; preds = %for.body
  %27 = load ptr, ptr %vdev.addr, align 8
  %msi_vectors17 = getelementptr inbounds %struct.VFIOPCIDevice, ptr %27, i32 0, i32 10
  %28 = load ptr, ptr %msi_vectors17, align 16
  %29 = load i32, ptr %i, align 4
  %idxprom18 = sext i32 %29 to i64
  %arrayidx19 = getelementptr %struct.VFIOMSIVector, ptr %28, i64 %idxprom18
  %virq = getelementptr inbounds %struct.VFIOMSIVector, ptr %arrayidx19, i32 0, i32 3
  %30 = load i32, ptr %virq, align 8
  %cmp20 = icmp slt i32 %30, 0
  br i1 %cmp20, label %if.then27, label %lor.lhs.false

lor.lhs.false:                                    ; preds = %if.then16
  %31 = load i8, ptr %msix.addr, align 1
  %tobool22 = trunc i8 %31 to i1
  br i1 %tobool22, label %land.lhs.true24, label %if.else

land.lhs.true24:                                  ; preds = %lor.lhs.false
  %32 = load ptr, ptr %vdev.addr, align 8
  %pdev = getelementptr inbounds %struct.VFIOPCIDevice, ptr %32, i32 0, i32 0
  %33 = load i32, ptr %i, align 4
  %call25 = call zeroext i1 @msix_is_masked(ptr noundef %pdev, i32 noundef %33)
  br i1 %call25, label %if.then27, label %if.else

if.then27:                                        ; preds = %land.lhs.true24, %if.then16
  %34 = load ptr, ptr %vdev.addr, align 8
  %msi_vectors28 = getelementptr inbounds %struct.VFIOPCIDevice, ptr %34, i32 0, i32 10
  %35 = load ptr, ptr %msi_vectors28, align 16
  %36 = load i32, ptr %i, align 4
  %idxprom29 = sext i32 %36 to i64
  %arrayidx30 = getelementptr %struct.VFIOMSIVector, ptr %35, i64 %idxprom29
  %interrupt = getelementptr inbounds %struct.VFIOMSIVector, ptr %arrayidx30, i32 0, i32 0
  %call31 = call i32 @event_notifier_get_fd(ptr noundef %interrupt)
  store i32 %call31, ptr %fd, align 4
  br label %if.end36

if.else:                                          ; preds = %land.lhs.true24, %lor.lhs.false
  %37 = load ptr, ptr %vdev.addr, align 8
  %msi_vectors32 = getelementptr inbounds %struct.VFIOPCIDevice, ptr %37, i32 0, i32 10
  %38 = load ptr, ptr %msi_vectors32, align 16
  %39 = load i32, ptr %i, align 4
  %idxprom33 = sext i32 %39 to i64
  %arrayidx34 = getelementptr %struct.VFIOMSIVector, ptr %38, i64 %idxprom33
  %kvm_interrupt = getelementptr inbounds %struct.VFIOMSIVector, ptr %arrayidx34, i32 0, i32 1
  %call35 = call i32 @event_notifier_get_fd(ptr noundef %kvm_interrupt)
  store i32 %call35, ptr %fd, align 4
  br label %if.end36

if.end36:                                         ; preds = %if.else, %if.then27
  br label %if.end37

if.end37:                                         ; preds = %if.end36, %for.body
  %40 = load i32, ptr %fd, align 4
  %41 = load ptr, ptr %fds, align 8
  %42 = load i32, ptr %i, align 4
  %idxprom38 = sext i32 %42 to i64
  %arrayidx39 = getelementptr i32, ptr %41, i64 %idxprom38
  store i32 %40, ptr %arrayidx39, align 4
  br label %for.inc

for.inc:                                          ; preds = %if.end37
  %43 = load i32, ptr %i, align 4
  %inc = add i32 %43, 1
  store i32 %inc, ptr %i, align 4
  br label %for.cond, !llvm.loop !12

for.end:                                          ; preds = %for.cond
  %44 = load ptr, ptr %vdev.addr, align 8
  %vbasedev = getelementptr inbounds %struct.VFIOPCIDevice, ptr %44, i32 0, i32 1
  %fd40 = getelementptr inbounds %struct.VFIODevice, ptr %vbasedev, i32 0, i32 8
  %45 = load i32, ptr %fd40, align 8
  %46 = load ptr, ptr %irq_set, align 8
  %call41 = call i32 (i32, i64, ...) @ioctl(i32 noundef %45, i64 noundef 15214, ptr noundef %46) #16
  store i32 %call41, ptr %ret, align 4
  %47 = load ptr, ptr %irq_set, align 8
  call void @g_free(ptr noundef %47)
  %48 = load i32, ptr %ret, align 4
  store i32 %48, ptr %retval, align 4
  br label %return

return:                                           ; preds = %for.end, %if.then4
  %49 = load i32, ptr %retval, align 4
  ret i32 %49
}