; Function Attrs: nounwind sspstrong uwtable
define internal fastcc i32 @vfio_enable_vectors(ptr noundef %vdev, i1 noundef zeroext %msix) unnamed_addr #0 {
entry:
  br i1 %msix, label %land.lhs.true, label %if.end5

land.lhs.true:                                    ; preds = %entry
  %msix1 = getelementptr inbounds nuw i8, ptr %vdev, i64 2872
  %0 = load ptr, ptr %msix1, align 8
  %noresize = getelementptr inbounds nuw i8, ptr %0, i64 24
  %1 = load i8, ptr %noresize, align 8
  %tobool2 = trunc i8 %1 to i1
  br i1 %tobool2, label %if.end5, label %if.then

if.then:                                          ; preds = %land.lhs.true
  %call.i = tail call noalias dereferenceable_or_null(24) ptr @g_malloc0(i64 noundef 24) #26
  store i32 24, ptr %call.i, align 4
  %flags.i = getelementptr inbounds nuw i8, ptr %call.i, i64 4
  store i32 36, ptr %flags.i, align 4
  %index.i = getelementptr inbounds nuw i8, ptr %call.i, i64 8
  store i32 2, ptr %index.i, align 4
  %start.i = getelementptr inbounds nuw i8, ptr %call.i, i64 12
  store i32 0, ptr %start.i, align 4
  %count.i = getelementptr inbounds nuw i8, ptr %call.i, i64 16
  store i32 1, ptr %count.i, align 4
  %data.i = getelementptr inbounds nuw i8, ptr %call.i, i64 20
  store i32 -1, ptr %data.i, align 4
  %fd2.i = getelementptr inbounds nuw i8, ptr %vdev, i64 2696
  %2 = load i32, ptr %fd2.i, align 8
  %call3.i = tail call i32 (i32, i64, ...) @ioctl(i32 noundef %2, i64 noundef 15214, ptr noundef nonnull %call.i) #23
  tail call void @g_free(ptr noundef nonnull %call.i) #23
  %tobool3.not = icmp eq i32 %call3.i, 0
  br i1 %tobool3.not, label %if.end5, label %return

if.end5:                                          ; preds = %if.then, %land.lhs.true, %entry
  %cond = phi i32 [ 2, %if.then ], [ 2, %land.lhs.true ], [ 1, %entry ]
  %nr_vectors = getelementptr inbounds nuw i8, ptr %vdev, i64 2880
  %3 = load i32, ptr %nr_vectors, align 16
  %mul = shl i32 %3, 2
  %add = add i32 %mul, 20
  %conv7 = sext i32 %add to i64
  %call8 = tail call noalias ptr @g_malloc0(i64 noundef %conv7) #26
  store i32 %add, ptr %call8, align 4
  %flags = getelementptr inbounds nuw i8, ptr %call8, i64 4
  store i32 36, ptr %flags, align 4
  %index = getelementptr inbounds nuw i8, ptr %call8, i64 8
  store i32 %cond, ptr %index, align 4
  %start = getelementptr inbounds nuw i8, ptr %call8, i64 12
  store i32 0, ptr %start, align 4
  %4 = load i32, ptr %nr_vectors, align 16
  %count = getelementptr inbounds nuw i8, ptr %call8, i64 16
  store i32 %4, ptr %count, align 4
  %data = getelementptr inbounds nuw i8, ptr %call8, i64 20
  %cmp30 = icmp sgt i32 %4, 0
  br i1 %cmp30, label %for.body.lr.ph, label %for.end

for.body.lr.ph:                                   ; preds = %if.end5
  %msi_vectors = getelementptr inbounds nuw i8, ptr %vdev, i64 2864
  br i1 %msix, label %for.body.us, label %for.body

for.body.us:                                      ; preds = %for.body.lr.ph, %if.end37.us
  %indvars.iv35 = phi i64 [ %indvars.iv.next36, %if.end37.us ], [ 0, %for.body.lr.ph ]
  %5 = load ptr, ptr %msi_vectors, align 16
  %arrayidx.us = getelementptr %struct.VFIOMSIVector, ptr %5, i64 %indvars.iv35
  %use.us = getelementptr inbounds nuw i8, ptr %arrayidx.us, i64 36
  %6 = load i8, ptr %use.us, align 4
  %tobool15.us = trunc i8 %6 to i1
  br i1 %tobool15.us, label %if.then16.us, label %if.end37.us

if.then16.us:                                     ; preds = %for.body.us
  %virq.us = getelementptr inbounds nuw i8, ptr %arrayidx.us, i64 32
  %7 = load i32, ptr %virq.us, align 8
  %cmp20.us = icmp slt i32 %7, 0
  br i1 %cmp20.us, label %if.then27.us, label %lor.lhs.false.us

lor.lhs.false.us:                                 ; preds = %if.then16.us
  %8 = trunc nuw nsw i64 %indvars.iv35 to i32
  %call25.us = tail call zeroext i1 @msix_is_masked(ptr noundef nonnull %vdev, i32 noundef %8) #23
  %.pre = load ptr, ptr %msi_vectors, align 16
  br i1 %call25.us, label %if.then27.us, label %if.else.us

if.else.us:                                       ; preds = %lor.lhs.false.us
  %kvm_interrupt.us = getelementptr %struct.VFIOMSIVector, ptr %.pre, i64 %indvars.iv35, i32 1
  br label %if.end37.us.sink.split

if.then27.us:                                     ; preds = %lor.lhs.false.us, %if.then16.us
  %9 = phi ptr [ %.pre, %lor.lhs.false.us ], [ %5, %if.then16.us ]
  %arrayidx30.us = getelementptr %struct.VFIOMSIVector, ptr %9, i64 %indvars.iv35
  br label %if.end37.us.sink.split

if.end37.us.sink.split:                           ; preds = %if.else.us, %if.then27.us
  %arrayidx30.us.sink = phi ptr [ %arrayidx30.us, %if.then27.us ], [ %kvm_interrupt.us, %if.else.us ]
  %call31.us = tail call i32 @event_notifier_get_fd(ptr noundef %arrayidx30.us.sink) #23
  br label %if.end37.us

if.end37.us:                                      ; preds = %if.end37.us.sink.split, %for.body.us
  %fd.0.us = phi i32 [ -1, %for.body.us ], [ %call31.us, %if.end37.us.sink.split ]
  %arrayidx39.us = getelementptr i32, ptr %data, i64 %indvars.iv35
  store i32 %fd.0.us, ptr %arrayidx39.us, align 4
  %indvars.iv.next36 = add nuw nsw i64 %indvars.iv35, 1
  %10 = load i32, ptr %nr_vectors, align 16
  %11 = sext i32 %10 to i64
  %cmp.us = icmp slt i64 %indvars.iv.next36, %11
  br i1 %cmp.us, label %for.body.us, label %for.end, !llvm.loop !10

for.body:                                         ; preds = %for.body.lr.ph, %if.end37
  %indvars.iv = phi i64 [ %indvars.iv.next, %if.end37 ], [ 0, %for.body.lr.ph ]
  %12 = load ptr, ptr %msi_vectors, align 16
  %arrayidx = getelementptr %struct.VFIOMSIVector, ptr %12, i64 %indvars.iv
  %use = getelementptr inbounds nuw i8, ptr %arrayidx, i64 36
  %13 = load i8, ptr %use, align 4
  %tobool15 = trunc i8 %13 to i1
  br i1 %tobool15, label %if.then16, label %if.end37

if.then16:                                        ; preds = %for.body
  %virq = getelementptr inbounds nuw i8, ptr %arrayidx, i64 32
  %14 = load i32, ptr %virq, align 8
  %cmp20 = icmp slt i32 %14, 0
  %kvm_interrupt = getelementptr %struct.VFIOMSIVector, ptr %12, i64 %indvars.iv, i32 1
  %arrayidx.sink = select i1 %cmp20, ptr %arrayidx, ptr %kvm_interrupt
  %call31 = tail call i32 @event_notifier_get_fd(ptr noundef %arrayidx.sink) #23
  br label %if.end37

if.end37:                                         ; preds = %if.then16, %for.body
  %fd.0 = phi i32 [ -1, %for.body ], [ %call31, %if.then16 ]
  %arrayidx39 = getelementptr i32, ptr %data, i64 %indvars.iv
  store i32 %fd.0, ptr %arrayidx39, align 4
  %indvars.iv.next = add nuw nsw i64 %indvars.iv, 1
  %15 = load i32, ptr %nr_vectors, align 16
  %16 = sext i32 %15 to i64
  %cmp = icmp slt i64 %indvars.iv.next, %16
  br i1 %cmp, label %for.body, label %for.end, !llvm.loop !10

for.end:                                          ; preds = %if.end37, %if.end37.us, %if.end5
  %fd40 = getelementptr inbounds nuw i8, ptr %vdev, i64 2696
  %17 = load i32, ptr %fd40, align 8
  %call41 = tail call i32 (i32, i64, ...) @ioctl(i32 noundef %17, i64 noundef 15214, ptr noundef nonnull %call8) #23
  tail call void @g_free(ptr noundef nonnull %call8) #23
  br label %return

return:                                           ; preds = %if.then, %for.end
  %retval.0 = phi i32 [ %call41, %for.end ], [ %call3.i, %if.then ]
  ret i32 %retval.0
}